
./fact_recursive:     file format elf64-x86-64


Disassembly of section .init:

0000000000400478 <_init>:
  400478:	48 83 ec 08          	sub    $0x8,%rsp
  40047c:	48 8b 05 75 0b 20 00 	mov    0x200b75(%rip),%rax        # 600ff8 <_DYNAMIC+0x1d0>
  400483:	48 85 c0             	test   %rax,%rax
  400486:	74 05                	je     40048d <_init+0x15>
  400488:	e8 73 00 00 00       	callq  400500 <atoi@plt+0x10>
  40048d:	48 83 c4 08          	add    $0x8,%rsp
  400491:	c3                   	retq   

Disassembly of section .plt:

00000000004004a0 <puts@plt-0x10>:
  4004a0:	ff 35 62 0b 20 00    	pushq  0x200b62(%rip)        # 601008 <_GLOBAL_OFFSET_TABLE_+0x8>
  4004a6:	ff 25 64 0b 20 00    	jmpq   *0x200b64(%rip)        # 601010 <_GLOBAL_OFFSET_TABLE_+0x10>
  4004ac:	0f 1f 40 00          	nopl   0x0(%rax)

00000000004004b0 <puts@plt>:
  4004b0:	ff 25 62 0b 20 00    	jmpq   *0x200b62(%rip)        # 601018 <_GLOBAL_OFFSET_TABLE_+0x18>
  4004b6:	68 00 00 00 00       	pushq  $0x0
  4004bb:	e9 e0 ff ff ff       	jmpq   4004a0 <_init+0x28>

00000000004004c0 <printf@plt>:
  4004c0:	ff 25 5a 0b 20 00    	jmpq   *0x200b5a(%rip)        # 601020 <_GLOBAL_OFFSET_TABLE_+0x20>
  4004c6:	68 01 00 00 00       	pushq  $0x1
  4004cb:	e9 d0 ff ff ff       	jmpq   4004a0 <_init+0x28>

00000000004004d0 <__assert_fail@plt>:
  4004d0:	ff 25 52 0b 20 00    	jmpq   *0x200b52(%rip)        # 601028 <_GLOBAL_OFFSET_TABLE_+0x28>
  4004d6:	68 02 00 00 00       	pushq  $0x2
  4004db:	e9 c0 ff ff ff       	jmpq   4004a0 <_init+0x28>

00000000004004e0 <__libc_start_main@plt>:
  4004e0:	ff 25 4a 0b 20 00    	jmpq   *0x200b4a(%rip)        # 601030 <_GLOBAL_OFFSET_TABLE_+0x30>
  4004e6:	68 03 00 00 00       	pushq  $0x3
  4004eb:	e9 b0 ff ff ff       	jmpq   4004a0 <_init+0x28>

00000000004004f0 <atoi@plt>:
  4004f0:	ff 25 42 0b 20 00    	jmpq   *0x200b42(%rip)        # 601038 <_GLOBAL_OFFSET_TABLE_+0x38>
  4004f6:	68 04 00 00 00       	pushq  $0x4
  4004fb:	e9 a0 ff ff ff       	jmpq   4004a0 <_init+0x28>

Disassembly of section .plt.got:

0000000000400500 <.plt.got>:
  400500:	ff 25 f2 0a 20 00    	jmpq   *0x200af2(%rip)        # 600ff8 <_DYNAMIC+0x1d0>
  400506:	66 90                	xchg   %ax,%ax

Disassembly of section .text:

0000000000400510 <_start>:
  400510:	31 ed                	xor    %ebp,%ebp
  400512:	49 89 d1             	mov    %rdx,%r9
  400515:	5e                   	pop    %rsi
  400516:	48 89 e2             	mov    %rsp,%rdx
  400519:	48 83 e4 f0          	and    $0xfffffffffffffff0,%rsp
  40051d:	50                   	push   %rax
  40051e:	54                   	push   %rsp
  40051f:	49 c7 c0 30 07 40 00 	mov    $0x400730,%r8
  400526:	48 c7 c1 c0 06 40 00 	mov    $0x4006c0,%rcx
  40052d:	48 c7 c7 31 06 40 00 	mov    $0x400631,%rdi
  400534:	e8 a7 ff ff ff       	callq  4004e0 <__libc_start_main@plt>
  400539:	f4                   	hlt    
  40053a:	66 0f 1f 44 00 00    	nopw   0x0(%rax,%rax,1)

0000000000400540 <deregister_tm_clones>:
  400540:	b8 57 10 60 00       	mov    $0x601057,%eax
  400545:	55                   	push   %rbp
  400546:	48 2d 50 10 60 00    	sub    $0x601050,%rax
  40054c:	48 83 f8 0e          	cmp    $0xe,%rax
  400550:	48 89 e5             	mov    %rsp,%rbp
  400553:	76 1b                	jbe    400570 <deregister_tm_clones+0x30>
  400555:	b8 00 00 00 00       	mov    $0x0,%eax
  40055a:	48 85 c0             	test   %rax,%rax
  40055d:	74 11                	je     400570 <deregister_tm_clones+0x30>
  40055f:	5d                   	pop    %rbp
  400560:	bf 50 10 60 00       	mov    $0x601050,%edi
  400565:	ff e0                	jmpq   *%rax
  400567:	66 0f 1f 84 00 00 00 	nopw   0x0(%rax,%rax,1)
  40056e:	00 00 
  400570:	5d                   	pop    %rbp
  400571:	c3                   	retq   
  400572:	0f 1f 40 00          	nopl   0x0(%rax)
  400576:	66 2e 0f 1f 84 00 00 	nopw   %cs:0x0(%rax,%rax,1)
  40057d:	00 00 00 

0000000000400580 <register_tm_clones>:
  400580:	be 50 10 60 00       	mov    $0x601050,%esi
  400585:	55                   	push   %rbp
  400586:	48 81 ee 50 10 60 00 	sub    $0x601050,%rsi
  40058d:	48 c1 fe 03          	sar    $0x3,%rsi
  400591:	48 89 e5             	mov    %rsp,%rbp
  400594:	48 89 f0             	mov    %rsi,%rax
  400597:	48 c1 e8 3f          	shr    $0x3f,%rax
  40059b:	48 01 c6             	add    %rax,%rsi
  40059e:	48 d1 fe             	sar    %rsi
  4005a1:	74 15                	je     4005b8 <register_tm_clones+0x38>
  4005a3:	b8 00 00 00 00       	mov    $0x0,%eax
  4005a8:	48 85 c0             	test   %rax,%rax
  4005ab:	74 0b                	je     4005b8 <register_tm_clones+0x38>
  4005ad:	5d                   	pop    %rbp
  4005ae:	bf 50 10 60 00       	mov    $0x601050,%edi
  4005b3:	ff e0                	jmpq   *%rax
  4005b5:	0f 1f 00             	nopl   (%rax)
  4005b8:	5d                   	pop    %rbp
  4005b9:	c3                   	retq   
  4005ba:	66 0f 1f 44 00 00    	nopw   0x0(%rax,%rax,1)

00000000004005c0 <__do_global_dtors_aux>:
  4005c0:	80 3d 89 0a 20 00 00 	cmpb   $0x0,0x200a89(%rip)        # 601050 <__TMC_END__>
  4005c7:	75 11                	jne    4005da <__do_global_dtors_aux+0x1a>
  4005c9:	55                   	push   %rbp
  4005ca:	48 89 e5             	mov    %rsp,%rbp
  4005cd:	e8 6e ff ff ff       	callq  400540 <deregister_tm_clones>
  4005d2:	5d                   	pop    %rbp
  4005d3:	c6 05 76 0a 20 00 01 	movb   $0x1,0x200a76(%rip)        # 601050 <__TMC_END__>
  4005da:	f3 c3                	repz retq 
  4005dc:	0f 1f 40 00          	nopl   0x0(%rax)

00000000004005e0 <frame_dummy>:
  4005e0:	bf 20 0e 60 00       	mov    $0x600e20,%edi
  4005e5:	48 83 3f 00          	cmpq   $0x0,(%rdi)
  4005e9:	75 05                	jne    4005f0 <frame_dummy+0x10>
  4005eb:	eb 93                	jmp    400580 <register_tm_clones>
  4005ed:	0f 1f 00             	nopl   (%rax)
  4005f0:	b8 00 00 00 00       	mov    $0x0,%eax
  4005f5:	48 85 c0             	test   %rax,%rax
  4005f8:	74 f1                	je     4005eb <frame_dummy+0xb>
  4005fa:	55                   	push   %rbp
  4005fb:	48 89 e5             	mov    %rsp,%rbp
  4005fe:	ff d0                	callq  *%rax
  400600:	5d                   	pop    %rbp
  400601:	e9 7a ff ff ff       	jmpq   400580 <register_tm_clones>

0000000000400606 <fact_recursive>:
  400606:	55                   	push   %rbp
  400607:	48 89 e5             	mov    %rsp,%rbp
  40060a:	48 83 ec 10          	sub    $0x10,%rsp
  40060e:	89 7d fc             	mov    %edi,-0x4(%rbp)
  400611:	83 7d fc 01          	cmpl   $0x1,-0x4(%rbp)
  400615:	7f 07                	jg     40061e <fact_recursive+0x18>
  400617:	b8 01 00 00 00       	mov    $0x1,%eax
  40061c:	eb 11                	jmp    40062f <fact_recursive+0x29>
  40061e:	8b 45 fc             	mov    -0x4(%rbp),%eax
  400621:	83 e8 01             	sub    $0x1,%eax
  400624:	89 c7                	mov    %eax,%edi
  400626:	e8 db ff ff ff       	callq  400606 <fact_recursive>
  40062b:	0f af 45 fc          	imul   -0x4(%rbp),%eax
  40062f:	c9                   	leaveq 
  400630:	c3                   	retq   

0000000000400631 <main>:
  400631:	55                   	push   %rbp
  400632:	48 89 e5             	mov    %rsp,%rbp
  400635:	48 83 ec 20          	sub    $0x20,%rsp
  400639:	89 7d ec             	mov    %edi,-0x14(%rbp)
  40063c:	48 89 75 e0          	mov    %rsi,-0x20(%rbp)
  400640:	83 7d ec 01          	cmpl   $0x1,-0x14(%rbp)
  400644:	7f 1b                	jg     400661 <main+0x30>
  400646:	bf 44 07 40 00       	mov    $0x400744,%edi
  40064b:	e8 60 fe ff ff       	callq  4004b0 <puts@plt>
  400650:	bf 55 07 40 00       	mov    $0x400755,%edi
  400655:	e8 56 fe ff ff       	callq  4004b0 <puts@plt>
  40065a:	b8 00 00 00 00       	mov    $0x0,%eax
  40065f:	eb 5b                	jmp    4006bc <main+0x8b>
  400661:	48 8b 45 e0          	mov    -0x20(%rbp),%rax
  400665:	48 83 c0 08          	add    $0x8,%rax
  400669:	48 8b 00             	mov    (%rax),%rax
  40066c:	48 89 c7             	mov    %rax,%rdi
  40066f:	e8 7c fe ff ff       	callq  4004f0 <atoi@plt>
  400674:	89 45 f8             	mov    %eax,-0x8(%rbp)
  400677:	83 7d f8 00          	cmpl   $0x0,-0x8(%rbp)
  40067b:	79 19                	jns    400696 <main+0x65>
  40067d:	b9 a0 07 40 00       	mov    $0x4007a0,%ecx
  400682:	ba 25 00 00 00       	mov    $0x25,%edx
  400687:	be 67 07 40 00       	mov    $0x400767,%esi
  40068c:	bf 7a 07 40 00       	mov    $0x40077a,%edi
  400691:	e8 3a fe ff ff       	callq  4004d0 <__assert_fail@plt>
  400696:	8b 45 f8             	mov    -0x8(%rbp),%eax
  400699:	89 c7                	mov    %eax,%edi
  40069b:	e8 66 ff ff ff       	callq  400606 <fact_recursive>
  4006a0:	89 45 fc             	mov    %eax,-0x4(%rbp)
  4006a3:	8b 45 fc             	mov    -0x4(%rbp),%eax
  4006a6:	89 c6                	mov    %eax,%esi
  4006a8:	bf 8c 07 40 00       	mov    $0x40078c,%edi
  4006ad:	b8 00 00 00 00       	mov    $0x0,%eax
  4006b2:	e8 09 fe ff ff       	callq  4004c0 <printf@plt>
  4006b7:	b8 00 00 00 00       	mov    $0x0,%eax
  4006bc:	c9                   	leaveq 
  4006bd:	c3                   	retq   
  4006be:	66 90                	xchg   %ax,%ax

00000000004006c0 <__libc_csu_init>:
  4006c0:	41 57                	push   %r15
  4006c2:	41 56                	push   %r14
  4006c4:	41 89 ff             	mov    %edi,%r15d
  4006c7:	41 55                	push   %r13
  4006c9:	41 54                	push   %r12
  4006cb:	4c 8d 25 3e 07 20 00 	lea    0x20073e(%rip),%r12        # 600e10 <__frame_dummy_init_array_entry>
  4006d2:	55                   	push   %rbp
  4006d3:	48 8d 2d 3e 07 20 00 	lea    0x20073e(%rip),%rbp        # 600e18 <__init_array_end>
  4006da:	53                   	push   %rbx
  4006db:	49 89 f6             	mov    %rsi,%r14
  4006de:	49 89 d5             	mov    %rdx,%r13
  4006e1:	4c 29 e5             	sub    %r12,%rbp
  4006e4:	48 83 ec 08          	sub    $0x8,%rsp
  4006e8:	48 c1 fd 03          	sar    $0x3,%rbp
  4006ec:	e8 87 fd ff ff       	callq  400478 <_init>
  4006f1:	48 85 ed             	test   %rbp,%rbp
  4006f4:	74 20                	je     400716 <__libc_csu_init+0x56>
  4006f6:	31 db                	xor    %ebx,%ebx
  4006f8:	0f 1f 84 00 00 00 00 	nopl   0x0(%rax,%rax,1)
  4006ff:	00 
  400700:	4c 89 ea             	mov    %r13,%rdx
  400703:	4c 89 f6             	mov    %r14,%rsi
  400706:	44 89 ff             	mov    %r15d,%edi
  400709:	41 ff 14 dc          	callq  *(%r12,%rbx,8)
  40070d:	48 83 c3 01          	add    $0x1,%rbx
  400711:	48 39 eb             	cmp    %rbp,%rbx
  400714:	75 ea                	jne    400700 <__libc_csu_init+0x40>
  400716:	48 83 c4 08          	add    $0x8,%rsp
  40071a:	5b                   	pop    %rbx
  40071b:	5d                   	pop    %rbp
  40071c:	41 5c                	pop    %r12
  40071e:	41 5d                	pop    %r13
  400720:	41 5e                	pop    %r14
  400722:	41 5f                	pop    %r15
  400724:	c3                   	retq   
  400725:	90                   	nop
  400726:	66 2e 0f 1f 84 00 00 	nopw   %cs:0x0(%rax,%rax,1)
  40072d:	00 00 00 

0000000000400730 <__libc_csu_fini>:
  400730:	f3 c3                	repz retq 

Disassembly of section .fini:

0000000000400734 <_fini>:
  400734:	48 83 ec 08          	sub    $0x8,%rsp
  400738:	48 83 c4 08          	add    $0x8,%rsp
  40073c:	c3                   	retq   
